target datalayout = "e-m:e-p270:32:32-p271:32:32-p272:64:64-i64:64-i128:128-f80:128-n8:16:32:64-S128"
target triple = "x86_64-pc-linux-gnu"

; Function Attrs: nounwind uwtable
define i32 @TextToInteger(ptr noundef %0) #0 {
  %2 = alloca ptr, align 8
  %3 = alloca i32, align 4
  %4 = alloca i32, align 4
  %5 = alloca i32, align 4
  store ptr %0, ptr %2, align 8
  call void @llvm.lifetime.start.p0(i64 4, ptr %3) #13
  store i32 0, ptr %3, align 4
  call void @llvm.lifetime.start.p0(i64 4, ptr %4) #13
  store i32 1, ptr %4, align 4
  %6 = load ptr, ptr %2, align 8
  %7 = getelementptr inbounds i8, ptr %6, i64 0
  %8 = load i8, ptr %7, align 1
  %9 = sext i8 %8 to i32
  %10 = icmp eq i32 %9, 43
  br i1 %10, label %17, label %11

11:                                               ; preds = %1
  %12 = load ptr, ptr %2, align 8
  %13 = getelementptr inbounds i8, ptr %12, i64 0
  %14 = load i8, ptr %13, align 1
  %15 = sext i8 %14 to i32
  %16 = icmp eq i32 %15, 45
  br i1 %16, label %17, label %27

17:                                               ; preds = %11, %1
  %18 = load ptr, ptr %2, align 8
  %19 = getelementptr inbounds i8, ptr %18, i64 0
  %20 = load i8, ptr %19, align 1
  %21 = sext i8 %20 to i32
  %22 = icmp eq i32 %21, 45
  br i1 %22, label %23, label %24

23:                                               ; preds = %17
  store i32 -1, ptr %4, align 4
  br label %24

24:                                               ; preds = %23, %17
  %25 = load ptr, ptr %2, align 8
  %26 = getelementptr inbounds nuw i8, ptr %25, i32 1
  store ptr %26, ptr %2, align 8
  br label %27

27:                                               ; preds = %24, %11
  call void @llvm.lifetime.start.p0(i64 4, ptr %5) #13
  store i32 0, ptr %5, align 4
  br label %28

28:                                               ; preds = %58, %27
  %29 = load ptr, ptr %2, align 8
  %30 = load i32, ptr %5, align 4
  %31 = sext i32 %30 to i64
  %32 = getelementptr inbounds i8, ptr %29, i64 %31
  %33 = load i8, ptr %32, align 1
  %34 = sext i8 %33 to i32
  %35 = icmp sge i32 %34, 48
  br i1 %35, label %36, label %44

36:                                               ; preds = %28
  %37 = load ptr, ptr %2, align 8
  %38 = load i32, ptr %5, align 4
  %39 = sext i32 %38 to i64
  %40 = getelementptr inbounds i8, ptr %37, i64 %39
  %41 = load i8, ptr %40, align 1
  %42 = sext i8 %41 to i32
  %43 = icmp sle i32 %42, 57
  br label %44

44:                                               ; preds = %36, %28
  %45 = phi i1 [ false, %28 ], [ %43, %36 ]
  br i1 %45, label %47, label %46

46:                                               ; preds = %44
  call void @llvm.lifetime.end.p0(i64 4, ptr %5) #13
  br label %61

47:                                               ; preds = %44
  %48 = load i32, ptr %3, align 4
  %49 = mul nsw i32 %48, 10
  %50 = load ptr, ptr %2, align 8
  %51 = load i32, ptr %5, align 4
  %52 = sext i32 %51 to i64
  %53 = getelementptr inbounds i8, ptr %50, i64 %52
  %54 = load i8, ptr %53, align 1
  %55 = sext i8 %54 to i32
  %56 = sub nsw i32 %55, 48
  %57 = add nsw i32 %49, %56
  store i32 %57, ptr %3, align 4
  br label %58

58:                                               ; preds = %47
  %59 = load i32, ptr %5, align 4
  %60 = add nsw i32 %59, 1
  store i32 %60, ptr %5, align 4
  br label %28

61:                                               ; preds = %46
  %62 = load i32, ptr %3, align 4
  %63 = load i32, ptr %4, align 4
  %64 = mul nsw i32 %62, %63
  call void @llvm.lifetime.end.p0(i64 4, ptr %4) #13
  call void @llvm.lifetime.end.p0(i64 4, ptr %3) #13
  ret i32 %64
}