; Function Attrs: nofree norecurse nosync nounwind memory(argmem: read) uwtable
define i32 @TextToInteger(ptr noundef readonly captures(none) %0) local_unnamed_addr #22 {
  %2 = load i8, ptr %0, align 1
  switch i8 %2, label %6 [
    i8 43, label %3
    i8 45, label %3
  ]

3:                                                ; preds = %1, %1
  %4 = icmp eq i8 %2, 45
  %spec.select = select i1 %4, i32 -1, i32 1
  %5 = getelementptr inbounds nuw i8, ptr %0, i64 1
  %.pre = load i8, ptr %5, align 1
  br label %6

6:                                                ; preds = %1, %3
  %7 = phi i8 [ %.pre, %3 ], [ %2, %1 ]
  %.015 = phi ptr [ %5, %3 ], [ %0, %1 ]
  %.013 = phi i32 [ %spec.select, %3 ], [ 1, %1 ]
  %8 = add i8 %7, -48
  %or.cond18 = icmp ult i8 %8, 10
  br i1 %or.cond18, label %.lr.ph, label %.critedge

.critedge:                                        ; preds = %.lr.ph, %6
  %.014.lcssa = phi i32 [ 0, %6 ], [ %13, %.lr.ph ]
  %9 = mul nsw i32 %.014.lcssa, %.013
  ret i32 %9

.lr.ph:                                           ; preds = %6, %.lr.ph
  %indvars.iv = phi i64 [ %indvars.iv.next, %.lr.ph ], [ 0, %6 ]
  %10 = phi i8 [ %15, %.lr.ph ], [ %7, %6 ]
  %.01419 = phi i32 [ %13, %.lr.ph ], [ 0, %6 ]
  %11 = mul nsw i32 %.01419, 10
  %narrow = add nsw i8 %10, -48
  %12 = zext nneg i8 %narrow to i32
  %13 = add nsw i32 %11, %12
  %indvars.iv.next = add nuw nsw i64 %indvars.iv, 1
  %14 = getelementptr inbounds nuw i8, ptr %.015, i64 %indvars.iv.next
  %15 = load i8, ptr %14, align 1
  %16 = add i8 %15, -48
  %or.cond = icmp ult i8 %16, 10
  br i1 %or.cond, label %.lr.ph, label %.critedge
}